target datalayout = "e-m:e-p270:32:32-p271:32:32-p272:64:64-i64:64-i128:128-f80:128-n8:16:32:64-S128"
target triple = "x86_64-pc-linux-gnu"

%struct.stbtt__buf = type { ptr, i32, i32 }

; Function Attrs: nounwind uwtable
define i32 @stbtt__buf_get(ptr noundef %0, i32 noundef %1) #0 {
  %3 = alloca ptr, align 8
  %4 = alloca i32, align 4
  %5 = alloca i32, align 4
  %6 = alloca i32, align 4
  store ptr %0, ptr %3, align 8, !tbaa !3
  store i32 %1, ptr %4, align 4, !tbaa !14
  call void @llvm.lifetime.start.p0(i64 4, ptr %5) #8
  store i32 0, ptr %5, align 4, !tbaa !14
  call void @llvm.lifetime.start.p0(i64 4, ptr %6) #8
  store i32 0, ptr %6, align 4, !tbaa !14
  br label %7

7:                                                ; preds = %18, %2
  %8 = load i32, ptr %6, align 4, !tbaa !14
  %9 = load i32, ptr %4, align 4, !tbaa !14
  %10 = icmp slt i32 %8, %9
  br i1 %10, label %11, label %21

11:                                               ; preds = %7
  %12 = load i32, ptr %5, align 4, !tbaa !14
  %13 = shl i32 %12, 8
  %14 = load ptr, ptr %3, align 8, !tbaa !3
  %15 = call zeroext i8 @stbtt__buf_get8(ptr noundef %14)
  %16 = zext i8 %15 to i32
  %17 = or i32 %13, %16
  store i32 %17, ptr %5, align 4, !tbaa !14
  br label %18

18:                                               ; preds = %11
  %19 = load i32, ptr %6, align 4, !tbaa !14
  %20 = add nsw i32 %19, 1
  store i32 %20, ptr %6, align 4, !tbaa !14
  br label %7, !llvm.loop !15

21:                                               ; preds = %7
  %22 = load i32, ptr %5, align 4, !tbaa !14
  call void @llvm.lifetime.end.p0(i64 4, ptr %6) #8
  call void @llvm.lifetime.end.p0(i64 4, ptr %5) #8
  ret i32 %22
}

; Function Attrs: nounwind uwtable
define zeroext i8 @stbtt__buf_get8(ptr noundef %0) #0 {
  %2 = alloca i8, align 1
  %3 = alloca ptr, align 8
  store ptr %0, ptr %3, align 8, !tbaa !3
  %4 = load ptr, ptr %3, align 8, !tbaa !3
  %5 = getelementptr inbounds nuw %struct.stbtt__buf, ptr %4, i32 0, i32 1
  %6 = load i32, ptr %5, align 8, !tbaa !7
  %7 = load ptr, ptr %3, align 8, !tbaa !3
  %8 = getelementptr inbounds nuw %struct.stbtt__buf, ptr %7, i32 0, i32 2
  %9 = load i32, ptr %8, align 4, !tbaa !11
  %10 = icmp sge i32 %6, %9
  br i1 %10, label %11, label %12

11:                                               ; preds = %1
  store i8 0, ptr %2, align 1
  br label %23

12:                                               ; preds = %1
  %13 = load ptr, ptr %3, align 8, !tbaa !3
  %14 = getelementptr inbounds nuw %struct.stbtt__buf, ptr %13, i32 0, i32 0
  %15 = load ptr, ptr %14, align 8, !tbaa !12
  %16 = load ptr, ptr %3, align 8, !tbaa !3
  %17 = getelementptr inbounds nuw %struct.stbtt__buf, ptr %16, i32 0, i32 1
  %18 = load i32, ptr %17, align 8, !tbaa !7
  %19 = add nsw i32 %18, 1
  store i32 %19, ptr %17, align 8, !tbaa !7
  %20 = sext i32 %18 to i64
  %21 = getelementptr inbounds i8, ptr %15, i64 %20
  %22 = load i8, ptr %21, align 1, !tbaa !13
  store i8 %22, ptr %2, align 1
  br label %23

23:                                               ; preds = %12, %11
  %24 = load i8, ptr %2, align 1
  ret i8 %24
}

; Function Attrs: nounwind uwtable
define i32 @stbtt__cff_int(ptr noundef %0) #0 {
  %2 = alloca i32, align 4
  %3 = alloca ptr, align 8
  %4 = alloca i32, align 4
  %5 = alloca i32, align 4
  store ptr %0, ptr %3, align 8, !tbaa !3
  call void @llvm.lifetime.start.p0(i64 4, ptr %4) #8
  %6 = load ptr, ptr %3, align 8, !tbaa !3
  %7 = call zeroext i8 @stbtt__buf_get8(ptr noundef %6)
  %8 = zext i8 %7 to i32
  store i32 %8, ptr %4, align 4, !tbaa !14
  %9 = load i32, ptr %4, align 4, !tbaa !14
  %10 = icmp sge i32 %9, 32
  br i1 %10, label %11, label %17

11:                                               ; preds = %1
  %12 = load i32, ptr %4, align 4, !tbaa !14
  %13 = icmp sle i32 %12, 246
  br i1 %13, label %14, label %17

14:                                               ; preds = %11
  %15 = load i32, ptr %4, align 4, !tbaa !14
  %16 = sub nsw i32 %15, 139
  store i32 %16, ptr %2, align 4
  store i32 1, ptr %5, align 4
  br label %65

17:                                               ; preds = %11, %1
  %18 = load i32, ptr %4, align 4, !tbaa !14
  %19 = icmp sge i32 %18, 247
  br i1 %19, label %20, label %32

20:                                               ; preds = %17
  %21 = load i32, ptr %4, align 4, !tbaa !14
  %22 = icmp sle i32 %21, 250
  br i1 %22, label %23, label %32

23:                                               ; preds = %20
  %24 = load i32, ptr %4, align 4, !tbaa !14
  %25 = sub nsw i32 %24, 247
  %26 = mul nsw i32 %25, 256
  %27 = load ptr, ptr %3, align 8, !tbaa !3
  %28 = call zeroext i8 @stbtt__buf_get8(ptr noundef %27)
  %29 = zext i8 %28 to i32
  %30 = add nsw i32 %26, %29
  %31 = add nsw i32 %30, 108
  store i32 %31, ptr %2, align 4
  store i32 1, ptr %5, align 4
  br label %65

32:                                               ; preds = %20, %17
  %33 = load i32, ptr %4, align 4, !tbaa !14
  %34 = icmp sge i32 %33, 251
  br i1 %34, label %35, label %48

35:                                               ; preds = %32
  %36 = load i32, ptr %4, align 4, !tbaa !14
  %37 = icmp sle i32 %36, 254
  br i1 %37, label %38, label %48

38:                                               ; preds = %35
  %39 = load i32, ptr %4, align 4, !tbaa !14
  %40 = sub nsw i32 %39, 251
  %41 = sub nsw i32 0, %40
  %42 = mul nsw i32 %41, 256
  %43 = load ptr, ptr %3, align 8, !tbaa !3
  %44 = call zeroext i8 @stbtt__buf_get8(ptr noundef %43)
  %45 = zext i8 %44 to i32
  %46 = sub nsw i32 %42, %45
  %47 = sub nsw i32 %46, 108
  store i32 %47, ptr %2, align 4
  store i32 1, ptr %5, align 4
  br label %65

48:                                               ; preds = %35, %32
  %49 = load i32, ptr %4, align 4, !tbaa !14
  %50 = icmp eq i32 %49, 28
  br i1 %50, label %51, label %54

51:                                               ; preds = %48
  %52 = load ptr, ptr %3, align 8, !tbaa !3
  %53 = call i32 @stbtt__buf_get(ptr noundef %52, i32 noundef 2)
  store i32 %53, ptr %2, align 4
  store i32 1, ptr %5, align 4
  br label %65

54:                                               ; preds = %48
  %55 = load i32, ptr %4, align 4, !tbaa !14
  %56 = icmp eq i32 %55, 29
  br i1 %56, label %57, label %60

57:                                               ; preds = %54
  %58 = load ptr, ptr %3, align 8, !tbaa !3
  %59 = call i32 @stbtt__buf_get(ptr noundef %58, i32 noundef 4)
  store i32 %59, ptr %2, align 4
  store i32 1, ptr %5, align 4
  br label %65

60:                                               ; preds = %54
  br label %61

61:                                               ; preds = %60
  br label %62

62:                                               ; preds = %61
  br label %63

63:                                               ; preds = %62
  br label %64

64:                                               ; preds = %63
  store i32 0, ptr %2, align 4
  store i32 1, ptr %5, align 4
  br label %65

65:                                               ; preds = %64, %57, %51, %38, %23, %14
  call void @llvm.lifetime.end.p0(i64 4, ptr %4) #8
  %66 = load i32, ptr %2, align 4
  ret i32 %66
}

; Function Attrs: nounwind uwtable
define void @stbtt__dict_get_ints(ptr noundef %0, i32 noundef %1, i32 noundef %2, ptr noundef %3) #0 {
  %5 = alloca ptr, align 8
  %6 = alloca i32, align 4
  %7 = alloca i32, align 4
  %8 = alloca ptr, align 8
  %9 = alloca i32, align 4
  %10 = alloca %struct.stbtt__buf, align 8
  store ptr %0, ptr %5, align 8, !tbaa !3
  store i32 %1, ptr %6, align 4, !tbaa !14
  store i32 %2, ptr %7, align 4, !tbaa !14
  store ptr %3, ptr %8, align 8, !tbaa !22
  call void @llvm.lifetime.start.p0(i64 4, ptr %9) #8
  call void @llvm.lifetime.start.p0(i64 16, ptr %10) #8
  %11 = load ptr, ptr %5, align 8, !tbaa !3
  %12 = load i32, ptr %6, align 4, !tbaa !14
  %13 = call { ptr, i64 } @stbtt__dict_get(ptr noundef %11, i32 noundef %12)
  %14 = getelementptr inbounds nuw { ptr, i64 }, ptr %10, i32 0, i32 0
  %15 = extractvalue { ptr, i64 } %13, 0
  store ptr %15, ptr %14, align 8
  %16 = getelementptr inbounds nuw { ptr, i64 }, ptr %10, i32 0, i32 1
  %17 = extractvalue { ptr, i64 } %13, 1
  store i64 %17, ptr %16, align 8
  store i32 0, ptr %9, align 4, !tbaa !14
  br label %18

18:                                               ; preds = %36, %4
  %19 = load i32, ptr %9, align 4, !tbaa !14
  %20 = load i32, ptr %7, align 4, !tbaa !14
  %21 = icmp slt i32 %19, %20
  br i1 %21, label %22, label %28

22:                                               ; preds = %18
  %23 = getelementptr inbounds nuw %struct.stbtt__buf, ptr %10, i32 0, i32 1
  %24 = load i32, ptr %23, align 8, !tbaa !7
  %25 = getelementptr inbounds nuw %struct.stbtt__buf, ptr %10, i32 0, i32 2
  %26 = load i32, ptr %25, align 4, !tbaa !11
  %27 = icmp slt i32 %24, %26
  br label %28

28:                                               ; preds = %22, %18
  %29 = phi i1 [ false, %18 ], [ %27, %22 ]
  br i1 %29, label %30, label %39

30:                                               ; preds = %28
  %31 = call i32 @stbtt__cff_int(ptr noundef %10)
  %32 = load ptr, ptr %8, align 8, !tbaa !22
  %33 = load i32, ptr %9, align 4, !tbaa !14
  %34 = sext i32 %33 to i64
  %35 = getelementptr inbounds i32, ptr %32, i64 %34
  store i32 %31, ptr %35, align 4, !tbaa !14
  br label %36

36:                                               ; preds = %30
  %37 = load i32, ptr %9, align 4, !tbaa !14
  %38 = add nsw i32 %37, 1
  store i32 %38, ptr %9, align 4, !tbaa !14
  br label %18, !llvm.loop !24

39:                                               ; preds = %28
  call void @llvm.lifetime.end.p0(i64 16, ptr %10) #8
  call void @llvm.lifetime.end.p0(i64 4, ptr %9) #8
  ret void
}