; Function Attrs: nofree norecurse nosync nounwind memory(read, argmem: readwrite, inaccessiblemem: none) uwtable
define void @stbtt__dict_get_ints(ptr noundef captures(none) initializes((8, 12)) %0, i32 noundef %1, i32 noundef %2, ptr noundef writeonly captures(none) %3) local_unnamed_addr #3 {
  %5 = tail call { ptr, i64 } @stbtt__dict_get(ptr noundef %0, i32 noundef %1)
  %6 = extractvalue { ptr, i64 } %5, 0
  %7 = extractvalue { ptr, i64 } %5, 1
  %8 = icmp sgt i32 %2, 0
  %.sroa.4.8.extract.trunc31 = trunc i64 %7 to i32
  %.sroa.4.12.extract.shift32 = lshr i64 %7, 32
  %.sroa.4.12.extract.trunc33 = trunc nuw i64 %.sroa.4.12.extract.shift32 to i32
  %9 = icmp slt i32 %.sroa.4.8.extract.trunc31, %.sroa.4.12.extract.trunc33
  %10 = select i1 %8, i1 %9, i1 false
  br i1 %10, label %stbtt__buf_get8.exit.i.preheader, label %._crit_edge

stbtt__buf_get8.exit.i.preheader:                 ; preds = %4
  %11 = zext nneg i32 %2 to i64
  br label %stbtt__buf_get8.exit.i

stbtt__buf_get8.exit.i:                           ; preds = %stbtt__buf_get8.exit.i.preheader, %stbtt__cff_int.exit
  %indvars.iv = phi i64 [ 0, %stbtt__buf_get8.exit.i.preheader ], [ %indvars.iv.next, %stbtt__cff_int.exit ]
  %.sroa.4.12.extract.trunc37 = phi i32 [ %.sroa.4.12.extract.trunc33, %stbtt__buf_get8.exit.i.preheader ], [ %.sroa.4.12.extract.trunc, %stbtt__cff_int.exit ]
  %.sroa.4.8.extract.trunc36 = phi i32 [ %.sroa.4.8.extract.trunc31, %stbtt__buf_get8.exit.i.preheader ], [ %.sroa.4.8.extract.trunc, %stbtt__cff_int.exit ]
  %.sroa.4.034 = phi i64 [ %7, %stbtt__buf_get8.exit.i.preheader ], [ %.sroa.4.7, %stbtt__cff_int.exit ]
  %12 = add nsw i32 %.sroa.4.8.extract.trunc36, 1
  %.sroa.4.8.insert.ext = zext i32 %12 to i64
  %.sroa.4.8.insert.mask = and i64 %.sroa.4.034, -4294967296
  %.sroa.4.8.insert.insert = or disjoint i64 %.sroa.4.8.insert.mask, %.sroa.4.8.insert.ext
  %sext = shl i64 %.sroa.4.034, 32
  %13 = ashr exact i64 %sext, 32
  %14 = getelementptr inbounds i8, ptr %6, i64 %13
  %15 = load i8, ptr %14, align 1, !tbaa !12
  %16 = zext i8 %15 to i32
  %17 = add i8 %15, -32
  %or.cond.i = icmp ult i8 %17, -41
  br i1 %or.cond.i, label %18, label %20

18:                                               ; preds = %stbtt__buf_get8.exit.i
  %19 = add nsw i32 %16, -139
  br label %stbtt__cff_int.exit

20:                                               ; preds = %stbtt__buf_get8.exit.i
  %21 = add nsw i8 %15, 9
  %or.cond3.i = icmp samesign ult i8 %21, 4
  br i1 %or.cond3.i, label %22, label %32

22:                                               ; preds = %20
  %23 = shl nuw nsw i32 %16, 8
  %.not.i22.i = icmp slt i32 %12, %.sroa.4.12.extract.trunc37
  br i1 %.not.i22.i, label %24, label %stbtt__buf_get8.exit24.i

24:                                               ; preds = %22
  %25 = add i64 %.sroa.4.034, 2
  %.sroa.4.8.insert.ext21 = and i64 %25, 4294967295
  %.sroa.4.8.insert.insert23 = or disjoint i64 %.sroa.4.8.insert.ext21, %.sroa.4.8.insert.mask
  %26 = sext i32 %12 to i64
  %27 = getelementptr inbounds i8, ptr %6, i64 %26
  %28 = load i8, ptr %27, align 1, !tbaa !12
  %29 = zext i8 %28 to i32
  br label %stbtt__buf_get8.exit24.i

stbtt__buf_get8.exit24.i:                         ; preds = %24, %22
  %.sroa.4.6 = phi i64 [ %.sroa.4.8.insert.insert23, %24 ], [ %.sroa.4.8.insert.insert, %22 ]
  %.0.i23.i = phi i32 [ %29, %24 ], [ 0, %22 ]
  %30 = add nsw i32 %23, -63124
  %31 = add nuw nsw i32 %30, %.0.i23.i
  br label %stbtt__cff_int.exit

32:                                               ; preds = %20
  %33 = add nsw i8 %15, 5
  %or.cond5.i = icmp samesign ult i8 %33, 4
  br i1 %or.cond5.i, label %34, label %44

34:                                               ; preds = %32
  %.not.i25.i = icmp slt i32 %12, %.sroa.4.12.extract.trunc37
  br i1 %.not.i25.i, label %35, label %stbtt__buf_get8.exit27.i

35:                                               ; preds = %34
  %36 = add i64 %.sroa.4.034, 2
  %.sroa.4.8.insert.ext17 = and i64 %36, 4294967295
  %.sroa.4.8.insert.insert19 = or disjoint i64 %.sroa.4.8.insert.ext17, %.sroa.4.8.insert.mask
  %37 = sext i32 %12 to i64
  %38 = getelementptr inbounds i8, ptr %6, i64 %37
  %39 = load i8, ptr %38, align 1, !tbaa !12
  %40 = zext i8 %39 to i32
  br label %stbtt__buf_get8.exit27.i

stbtt__buf_get8.exit27.i:                         ; preds = %35, %34
  %.sroa.4.5 = phi i64 [ %.sroa.4.8.insert.insert19, %35 ], [ %.sroa.4.8.insert.insert, %34 ]
  %.0.i26.i = phi i32 [ %40, %35 ], [ 0, %34 ]
  %41 = shl nuw nsw i32 %16, 8
  %42 = or disjoint i32 %41, %.0.i26.i
  %43 = sub nsw i32 64148, %42
  br label %stbtt__cff_int.exit

44:                                               ; preds = %32
  switch i8 %15, label %stbtt__cff_int.exit [
    i8 28, label %.preheader
    i8 29, label %.preheader28
  ]

.preheader:                                       ; preds = %44, %stbtt__buf_get8.exit.i.i
  %.sroa.4.3 = phi i64 [ %.sroa.4.4, %stbtt__buf_get8.exit.i.i ], [ %.sroa.4.8.insert.insert, %44 ]
  %45 = phi i32 [ %53, %stbtt__buf_get8.exit.i.i ], [ %12, %44 ]
  %.07.i.i = phi i32 [ %55, %stbtt__buf_get8.exit.i.i ], [ 0, %44 ]
  %.056.i.i = phi i32 [ %54, %stbtt__buf_get8.exit.i.i ], [ 0, %44 ]
  %46 = shl i32 %.056.i.i, 8
  %.not.i.i.i = icmp slt i32 %45, %.sroa.4.12.extract.trunc37
  br i1 %.not.i.i.i, label %47, label %stbtt__buf_get8.exit.i.i

47:                                               ; preds = %.preheader
  %48 = add nsw i32 %45, 1
  %.sroa.4.8.insert.ext13 = zext i32 %48 to i64
  %.sroa.4.8.insert.mask14 = and i64 %.sroa.4.3, -4294967296
  %.sroa.4.8.insert.insert15 = or disjoint i64 %.sroa.4.8.insert.mask14, %.sroa.4.8.insert.ext13
  %49 = sext i32 %45 to i64
  %50 = getelementptr inbounds i8, ptr %6, i64 %49
  %51 = load i8, ptr %50, align 1, !tbaa !12
  %52 = zext i8 %51 to i32
  br label %stbtt__buf_get8.exit.i.i

stbtt__buf_get8.exit.i.i:                         ; preds = %47, %.preheader
  %.sroa.4.4 = phi i64 [ %.sroa.4.8.insert.insert15, %47 ], [ %.sroa.4.3, %.preheader ]
  %53 = phi i32 [ %48, %47 ], [ %45, %.preheader ]
  %.0.i.i.i = phi i32 [ %52, %47 ], [ 0, %.preheader ]
  %54 = or disjoint i32 %.0.i.i.i, %46
  %55 = add nuw nsw i32 %.07.i.i, 1
  %exitcond.not.i.i = icmp eq i32 %55, 2
  br i1 %exitcond.not.i.i, label %stbtt__cff_int.exit, label %.preheader, !llvm.loop !13

.preheader28:                                     ; preds = %44, %stbtt__buf_get8.exit.i32.i
  %.sroa.4.1 = phi i64 [ %.sroa.4.2, %stbtt__buf_get8.exit.i32.i ], [ %.sroa.4.8.insert.insert, %44 ]
  %56 = phi i32 [ %64, %stbtt__buf_get8.exit.i32.i ], [ %12, %44 ]
  %.07.i29.i = phi i32 [ %66, %stbtt__buf_get8.exit.i32.i ], [ 0, %44 ]
  %.056.i30.i = phi i32 [ %65, %stbtt__buf_get8.exit.i32.i ], [ 0, %44 ]
  %57 = shl i32 %.056.i30.i, 8
  %.not.i.i31.i = icmp slt i32 %56, %.sroa.4.12.extract.trunc37
  br i1 %.not.i.i31.i, label %58, label %stbtt__buf_get8.exit.i32.i

58:                                               ; preds = %.preheader28
  %59 = add nsw i32 %56, 1
  %.sroa.4.8.insert.ext9 = zext i32 %59 to i64
  %.sroa.4.8.insert.mask10 = and i64 %.sroa.4.1, -4294967296
  %.sroa.4.8.insert.insert11 = or disjoint i64 %.sroa.4.8.insert.mask10, %.sroa.4.8.insert.ext9
  %60 = sext i32 %56 to i64
  %61 = getelementptr inbounds i8, ptr %6, i64 %60
  %62 = load i8, ptr %61, align 1, !tbaa !12
  %63 = zext i8 %62 to i32
  br label %stbtt__buf_get8.exit.i32.i

stbtt__buf_get8.exit.i32.i:                       ; preds = %58, %.preheader28
  %.sroa.4.2 = phi i64 [ %.sroa.4.8.insert.insert11, %58 ], [ %.sroa.4.1, %.preheader28 ]
  %64 = phi i32 [ %59, %58 ], [ %56, %.preheader28 ]
  %.0.i.i33.i = phi i32 [ %63, %58 ], [ 0, %.preheader28 ]
  %65 = or disjoint i32 %.0.i.i33.i, %57
  %66 = add nuw nsw i32 %.07.i29.i, 1
  %exitcond.not.i34.i = icmp eq i32 %66, 4
  br i1 %exitcond.not.i34.i, label %stbtt__cff_int.exit, label %.preheader28, !llvm.loop !13

stbtt__cff_int.exit:                              ; preds = %stbtt__buf_get8.exit.i32.i, %stbtt__buf_get8.exit.i.i, %18, %stbtt__buf_get8.exit24.i, %stbtt__buf_get8.exit27.i, %44
  %.sroa.4.7 = phi i64 [ %.sroa.4.8.insert.insert, %18 ], [ %.sroa.4.6, %stbtt__buf_get8.exit24.i ], [ %.sroa.4.5, %stbtt__buf_get8.exit27.i ], [ %.sroa.4.8.insert.insert, %44 ], [ %.sroa.4.4, %stbtt__buf_get8.exit.i.i ], [ %.sroa.4.2, %stbtt__buf_get8.exit.i32.i ]
  %.0.i = phi i32 [ %19, %18 ], [ %31, %stbtt__buf_get8.exit24.i ], [ %43, %stbtt__buf_get8.exit27.i ], [ 0, %44 ], [ %54, %stbtt__buf_get8.exit.i.i ], [ %65, %stbtt__buf_get8.exit.i32.i ]
  %67 = getelementptr inbounds nuw i32, ptr %3, i64 %indvars.iv
  store i32 %.0.i, ptr %67, align 4, !tbaa !17
  %indvars.iv.next = add nuw nsw i64 %indvars.iv, 1
  %68 = icmp samesign ult i64 %indvars.iv.next, %11
  %.sroa.4.8.extract.trunc = trunc i64 %.sroa.4.7 to i32
  %.sroa.4.12.extract.shift = lshr i64 %.sroa.4.7, 32
  %.sroa.4.12.extract.trunc = trunc nuw i64 %.sroa.4.12.extract.shift to i32
  %69 = icmp slt i32 %.sroa.4.8.extract.trunc, %.sroa.4.12.extract.trunc
  %70 = select i1 %68, i1 %69, i1 false
  br i1 %70, label %stbtt__buf_get8.exit.i, label %._crit_edge, !llvm.loop !18

._crit_edge:                                      ; preds = %stbtt__cff_int.exit, %4
  ret void
}